; ModuleID = 'source-C-CXX/21/872.c'
source_filename = "source-C-CXX/21/872.c"
target datalayout = "e-m:e-p270:32:32-p271:32:32-p272:64:64-i64:64-f80:128-n8:16:32:64-S128"
target triple = "x86_64-pc-linux-gnu"

@.str = private unnamed_addr constant [5 x i8] c"%d%c\00", align 1
@.str.1 = private unnamed_addr constant [3 x i8] c"No\00", align 1
@.str.2 = private unnamed_addr constant [3 x i8] c"%d\00", align 1

; Function Attrs: nofree nounwind sspstrong uwtable
define dso_local i32 @main() local_unnamed_addr #0 {
  %1 = alloca i32, align 4
  %2 = alloca i8, align 1
  %3 = bitcast i32* %1 to i8*
  call void @llvm.lifetime.start.p0i8(i64 4, i8* nonnull %3) #3
  call void @llvm.lifetime.start.p0i8(i64 1, i8* nonnull %2) #3
  br label %4

4:                                                ; preds = %4, %0
  %5 = phi i32 [ 0, %0 ], [ %15, %4 ]
  %6 = phi i32 [ 0, %0 ], [ %17, %4 ]
  %7 = call i32 (i8*, ...) @__isoc99_scanf(i8* getelementptr inbounds ([5 x i8], [5 x i8]* @.str, i64 0, i64 0), i32* nonnull %1, i8* nonnull %2)
  %8 = load i32, i32* %1, align 4, !tbaa !5
  %9 = icmp sgt i32 %5, %8
  %10 = icmp sgt i32 %8, %6
  %11 = select i1 %9, i1 %10, i1 false
  %12 = select i1 %11, i32 %8, i32 %6
  %13 = icmp slt i32 %5, %8
  %14 = icmp sgt i32 %5, %12
  %15 = select i1 %13, i32 %8, i32 %5
  %16 = select i1 %13, i1 %14, i1 false
  %17 = select i1 %16, i32 %5, i32 %12
  %18 = load i8, i8* %2, align 1, !tbaa !9
  %19 = icmp eq i8 %18, 44
  br i1 %19, label %4, label %20, !llvm.loop !10

20:                                               ; preds = %4
  %21 = icmp eq i32 %15, %17
  %22 = icmp eq i32 %17, 0
  %23 = or i1 %21, %22
  br i1 %23, label %24, label %26

24:                                               ; preds = %20
  %25 = call i32 (i8*, ...) @printf(i8* nonnull dereferenceable(1) getelementptr inbounds ([3 x i8], [3 x i8]* @.str.1, i64 0, i64 0))
  br label %28

26:                                               ; preds = %20
  %27 = call i32 (i8*, ...) @printf(i8* nonnull dereferenceable(1) getelementptr inbounds ([3 x i8], [3 x i8]* @.str.2, i64 0, i64 0), i32 %17)
  br label %28

28:                                               ; preds = %26, %24
  call void @llvm.lifetime.end.p0i8(i64 1, i8* nonnull %2) #3
  call void @llvm.lifetime.end.p0i8(i64 4, i8* nonnull %3) #3
  ret i32 0
}

; Function Attrs: argmemonly mustprogress nofree nosync nounwind willreturn
declare void @llvm.lifetime.start.p0i8(i64 immarg, i8* nocapture) #1

; Function Attrs: nofree nounwind
declare noundef i32 @__isoc99_scanf(i8* nocapture noundef readonly, ...) local_unnamed_addr #2

; Function Attrs: nofree nounwind
declare noundef i32 @printf(i8* nocapture noundef readonly, ...) local_unnamed_addr #2

; Function Attrs: argmemonly mustprogress nofree nosync nounwind willreturn
declare void @llvm.lifetime.end.p0i8(i64 immarg, i8* nocapture) #1


!llvm.module.flags = !{!0, !1, !2, !3}
!llvm.ident = !{!4}

!0 = !{i32 1, !"wchar_size", i32 4}
!1 = !{i32 7, !"PIC Level", i32 2}
!2 = !{i32 7, !"PIE Level", i32 2}
!3 = !{i32 7, !"uwtable", i32 1}
!4 = !{!"clang version 13.0.0"}
!5 = !{!6, !6, i64 0}
!6 = !{!"int", !7, i64 0}
!7 = !{!"omnipotent char", !8, i64 0}
!8 = !{!"Simple C/C++ TBAA"}
!9 = !{!7, !7, i64 0}
!10 = distinct !{!10, !11}
!11 = !{!"llvm.loop.mustprogress"}
